target datalayout = "e-m:e-p270:32:32-p271:32:32-p272:64:64-i64:64-i128:128-f80:128-n8:16:32:64-S128"
target triple = "x86_64-unknown-linux-gnu"

%struct.UStringSearch = type { ptr, %struct.UPattern, ptr, ptr, ptr, ptr, ptr, i8, i32, i32, i32, i8 }
%struct.UPattern = type { ptr, i32, i32, ptr, [256 x i32], i32, ptr, [256 x i64], i8, i8 }
%struct.USearch = type { ptr, i32, i8, i8, i16, ptr, ptr, i32, i32, i8, i8 }

; Function Attrs: mustprogress uwtable
define void @usearch_close_75(ptr noundef %strsrch) #0 {
entry:
  %strsrch.addr = alloca ptr, align 8
  store ptr %strsrch, ptr %strsrch.addr, align 8
  %0 = load ptr, ptr %strsrch.addr, align 8
  %tobool = icmp ne ptr %0, null
  br i1 %tobool, label %if.then, label %if.end32

if.then:                                          ; preds = %entry
  %1 = load ptr, ptr %strsrch.addr, align 8
  %pattern = getelementptr inbounds %struct.UStringSearch, ptr %1, i32 0, i32 1
  %ces = getelementptr inbounds %struct.UPattern, ptr %pattern, i32 0, i32 3
  %2 = load ptr, ptr %ces, align 8
  %3 = load ptr, ptr %strsrch.addr, align 8
  %pattern1 = getelementptr inbounds %struct.UStringSearch, ptr %3, i32 0, i32 1
  %cesBuffer = getelementptr inbounds %struct.UPattern, ptr %pattern1, i32 0, i32 4
  %arraydecay = getelementptr inbounds [256 x i32], ptr %cesBuffer, i64 0, i64 0
  %cmp = icmp ne ptr %2, %arraydecay
  br i1 %cmp, label %land.lhs.true, label %if.end

land.lhs.true:                                    ; preds = %if.then
  %4 = load ptr, ptr %strsrch.addr, align 8
  %pattern2 = getelementptr inbounds %struct.UStringSearch, ptr %4, i32 0, i32 1
  %ces3 = getelementptr inbounds %struct.UPattern, ptr %pattern2, i32 0, i32 3
  %5 = load ptr, ptr %ces3, align 8
  %tobool4 = icmp ne ptr %5, null
  br i1 %tobool4, label %if.then5, label %if.end

if.then5:                                         ; preds = %land.lhs.true
  %6 = load ptr, ptr %strsrch.addr, align 8
  %pattern6 = getelementptr inbounds %struct.UStringSearch, ptr %6, i32 0, i32 1
  %ces7 = getelementptr inbounds %struct.UPattern, ptr %pattern6, i32 0, i32 3
  %7 = load ptr, ptr %ces7, align 8
  call void @uprv_free_75(ptr noundef %7)
  br label %if.end

if.end:                                           ; preds = %if.then5, %land.lhs.true, %if.then
  %8 = load ptr, ptr %strsrch.addr, align 8
  %pattern8 = getelementptr inbounds %struct.UStringSearch, ptr %8, i32 0, i32 1
  %pces = getelementptr inbounds %struct.UPattern, ptr %pattern8, i32 0, i32 6
  %9 = load ptr, ptr %pces, align 8
  %cmp9 = icmp ne ptr %9, null
  br i1 %cmp9, label %land.lhs.true10, label %if.end19

land.lhs.true10:                                  ; preds = %if.end
  %10 = load ptr, ptr %strsrch.addr, align 8
  %pattern11 = getelementptr inbounds %struct.UStringSearch, ptr %10, i32 0, i32 1
  %pces12 = getelementptr inbounds %struct.UPattern, ptr %pattern11, i32 0, i32 6
  %11 = load ptr, ptr %pces12, align 8
  %12 = load ptr, ptr %strsrch.addr, align 8
  %pattern13 = getelementptr inbounds %struct.UStringSearch, ptr %12, i32 0, i32 1
  %pcesBuffer = getelementptr inbounds %struct.UPattern, ptr %pattern13, i32 0, i32 7
  %arraydecay14 = getelementptr inbounds [256 x i64], ptr %pcesBuffer, i64 0, i64 0
  %cmp15 = icmp ne ptr %11, %arraydecay14
  br i1 %cmp15, label %if.then16, label %if.end19

if.then16:                                        ; preds = %land.lhs.true10
  %13 = load ptr, ptr %strsrch.addr, align 8
  %pattern17 = getelementptr inbounds %struct.UStringSearch, ptr %13, i32 0, i32 1
  %pces18 = getelementptr inbounds %struct.UPattern, ptr %pattern17, i32 0, i32 6
  %14 = load ptr, ptr %pces18, align 8
  call void @uprv_free_75(ptr noundef %14)
  br label %if.end19

if.end19:                                         ; preds = %if.then16, %land.lhs.true10, %if.end
  %15 = load ptr, ptr %strsrch.addr, align 8
  %textProcessedIter = getelementptr inbounds %struct.UStringSearch, ptr %15, i32 0, i32 5
  %16 = load ptr, ptr %textProcessedIter, align 8
  %isnull = icmp eq ptr %16, null
  br i1 %isnull, label %delete.end, label %delete.notnull

delete.notnull:                                   ; preds = %if.end19
  call void @_ZN6icu_7513UCollationPCED1Ev(ptr noundef nonnull align 8 dereferenceable(292) %16) #8
  call void @_ZN6icu_757UMemorydlEPv(ptr noundef %16) #8
  br label %delete.end

delete.end:                                       ; preds = %delete.notnull, %if.end19
  %17 = load ptr, ptr %strsrch.addr, align 8
  %textIter = getelementptr inbounds %struct.UStringSearch, ptr %17, i32 0, i32 4
  %18 = load ptr, ptr %textIter, align 8
  call void @ucol_closeElements_75(ptr noundef %18)
  %19 = load ptr, ptr %strsrch.addr, align 8
  %utilIter = getelementptr inbounds %struct.UStringSearch, ptr %19, i32 0, i32 6
  %20 = load ptr, ptr %utilIter, align 8
  call void @ucol_closeElements_75(ptr noundef %20)
  %21 = load ptr, ptr %strsrch.addr, align 8
  %ownCollator = getelementptr inbounds %struct.UStringSearch, ptr %21, i32 0, i32 7
  %22 = load i8, ptr %ownCollator, align 8
  %tobool20 = icmp ne i8 %22, 0
  br i1 %tobool20, label %land.lhs.true21, label %if.end25

land.lhs.true21:                                  ; preds = %delete.end
  %23 = load ptr, ptr %strsrch.addr, align 8
  %collator = getelementptr inbounds %struct.UStringSearch, ptr %23, i32 0, i32 2
  %24 = load ptr, ptr %collator, align 8
  %tobool22 = icmp ne ptr %24, null
  br i1 %tobool22, label %if.then23, label %if.end25

if.then23:                                        ; preds = %land.lhs.true21
  %25 = load ptr, ptr %strsrch.addr, align 8
  %collator24 = getelementptr inbounds %struct.UStringSearch, ptr %25, i32 0, i32 2
  %26 = load ptr, ptr %collator24, align 8
  call void @ucol_close_75(ptr noundef %26)
  br label %if.end25

if.end25:                                         ; preds = %if.then23, %land.lhs.true21, %delete.end
  %27 = load ptr, ptr %strsrch.addr, align 8
  %search = getelementptr inbounds %struct.UStringSearch, ptr %27, i32 0, i32 0
  %28 = load ptr, ptr %search, align 8
  %internalBreakIter = getelementptr inbounds %struct.USearch, ptr %28, i32 0, i32 5
  %29 = load ptr, ptr %internalBreakIter, align 8
  %cmp26 = icmp ne ptr %29, null
  br i1 %cmp26, label %if.then27, label %if.end30

if.then27:                                        ; preds = %if.end25
  %30 = load ptr, ptr %strsrch.addr, align 8
  %search28 = getelementptr inbounds %struct.UStringSearch, ptr %30, i32 0, i32 0
  %31 = load ptr, ptr %search28, align 8
  %internalBreakIter29 = getelementptr inbounds %struct.USearch, ptr %31, i32 0, i32 5
  %32 = load ptr, ptr %internalBreakIter29, align 8
  call void @ubrk_close_75(ptr noundef %32)
  br label %if.end30

if.end30:                                         ; preds = %if.then27, %if.end25
  %33 = load ptr, ptr %strsrch.addr, align 8
  %search31 = getelementptr inbounds %struct.UStringSearch, ptr %33, i32 0, i32 0
  %34 = load ptr, ptr %search31, align 8
  call void @uprv_free_75(ptr noundef %34)
  %35 = load ptr, ptr %strsrch.addr, align 8
  call void @uprv_free_75(ptr noundef %35)
  br label %if.end32

if.end32:                                         ; preds = %if.end30, %entry
  ret void
}