; Function Attrs: mustprogress uwtable
define void @usearch_close_75(ptr noundef %strsrch) local_unnamed_addr #0 {
entry:
  %tobool.not = icmp eq ptr %strsrch, null
  br i1 %tobool.not, label %if.end32, label %if.then

if.then:                                          ; preds = %entry
  %ces = getelementptr inbounds i8, ptr %strsrch, i64 24
  %0 = load ptr, ptr %ces, align 8
  %cesBuffer = getelementptr inbounds i8, ptr %strsrch, i64 32
  %cmp.not = icmp eq ptr %0, %cesBuffer
  %tobool4.not = icmp eq ptr %0, null
  %or.cond = or i1 %cmp.not, %tobool4.not
  br i1 %or.cond, label %if.end, label %if.then5

if.then5:                                         ; preds = %if.then
  tail call void @uprv_free_75(ptr noundef nonnull %0)
  br label %if.end

if.end:                                           ; preds = %if.then5, %if.then
  %pces = getelementptr inbounds i8, ptr %strsrch, i64 1064
  %1 = load ptr, ptr %pces, align 8
  %cmp9.not = icmp eq ptr %1, null
  %pcesBuffer = getelementptr inbounds i8, ptr %strsrch, i64 1072
  %cmp15.not = icmp eq ptr %1, %pcesBuffer
  %or.cond23 = select i1 %cmp9.not, i1 true, i1 %cmp15.not
  br i1 %or.cond23, label %if.end19, label %if.then16

if.then16:                                        ; preds = %if.end
  tail call void @uprv_free_75(ptr noundef nonnull %1)
  br label %if.end19

if.end19:                                         ; preds = %if.then16, %if.end
  %textProcessedIter = getelementptr inbounds i8, ptr %strsrch, i64 3152
  %2 = load ptr, ptr %textProcessedIter, align 8
  %isnull = icmp eq ptr %2, null
  br i1 %isnull, label %delete.end, label %delete.notnull

delete.notnull:                                   ; preds = %if.end19
  tail call void @_ZN6icu_7513UCollationPCED1Ev(ptr noundef nonnull align 8 dereferenceable(292) %2) #17
  tail call void @_ZN6icu_757UMemorydlEPv(ptr noundef nonnull %2) #17
  br label %delete.end

delete.end:                                       ; preds = %delete.notnull, %if.end19
  %textIter = getelementptr inbounds i8, ptr %strsrch, i64 3144
  %3 = load ptr, ptr %textIter, align 8
  tail call void @ucol_closeElements_75(ptr noundef %3)
  %utilIter = getelementptr inbounds i8, ptr %strsrch, i64 3160
  %4 = load ptr, ptr %utilIter, align 8
  tail call void @ucol_closeElements_75(ptr noundef %4)
  %ownCollator = getelementptr inbounds i8, ptr %strsrch, i64 3168
  %5 = load i8, ptr %ownCollator, align 8
  %tobool20.not = icmp eq i8 %5, 0
  br i1 %tobool20.not, label %if.end25, label %land.lhs.true21

land.lhs.true21:                                  ; preds = %delete.end
  %collator = getelementptr inbounds i8, ptr %strsrch, i64 3128
  %6 = load ptr, ptr %collator, align 8
  %tobool22.not = icmp eq ptr %6, null
  br i1 %tobool22.not, label %if.end25, label %if.then23

if.then23:                                        ; preds = %land.lhs.true21
  tail call void @ucol_close_75(ptr noundef nonnull %6)
  br label %if.end25

if.end25:                                         ; preds = %if.then23, %land.lhs.true21, %delete.end
  %7 = load ptr, ptr %strsrch, align 8
  %internalBreakIter = getelementptr inbounds i8, ptr %7, i64 16
  %8 = load ptr, ptr %internalBreakIter, align 8
  %cmp26.not = icmp eq ptr %8, null
  br i1 %cmp26.not, label %if.end30, label %if.then27

if.then27:                                        ; preds = %if.end25
  tail call void @ubrk_close_75(ptr noundef nonnull %8)
  %.pre = load ptr, ptr %strsrch, align 8
  br label %if.end30

if.end30:                                         ; preds = %if.then27, %if.end25
  %9 = phi ptr [ %.pre, %if.then27 ], [ %7, %if.end25 ]
  tail call void @uprv_free_75(ptr noundef %9)
  tail call void @uprv_free_75(ptr noundef nonnull %strsrch)
  br label %if.end32

if.end32:                                         ; preds = %if.end30, %entry
  ret void
}